target datalayout = "e-m:e-p270:32:32-p271:32:32-p272:64:64-i64:64-i128:128-f80:128-n8:16:32:64-S128"
target triple = "x86_64-pc-linux-gnu"

%struct.DataCacheElement = type { ptr, ptr }

; Function Attrs: mustprogress nounwind uwtable
define internal noundef ptr @_ZL12findBasenamePKc(ptr noundef %0) #0 {
  %2 = alloca ptr, align 8
  %3 = alloca ptr, align 8
  %4 = alloca ptr, align 8
  %5 = alloca i32, align 4
  store ptr %0, ptr %3, align 8, !tbaa !17
  call void @llvm.lifetime.start.p0(i64 8, ptr %4) #12
  %6 = load ptr, ptr %3, align 8, !tbaa !17
  %7 = call noundef ptr @strrchr(ptr noundef %6, i32 noundef 47) #15
  store ptr %7, ptr %4, align 8, !tbaa !17
  %8 = load ptr, ptr %4, align 8, !tbaa !17
  %9 = icmp eq ptr %8, null
  br i1 %9, label %10, label %12

10:                                               ; preds = %1
  %11 = load ptr, ptr %3, align 8, !tbaa !17
  store ptr %11, ptr %2, align 8
  store i32 1, ptr %5, align 4
  br label %15

12:                                               ; preds = %1
  %13 = load ptr, ptr %4, align 8, !tbaa !17
  %14 = getelementptr inbounds i8, ptr %13, i64 1
  store ptr %14, ptr %2, align 8
  store i32 1, ptr %5, align 4
  br label %15

15:                                               ; preds = %12, %10
  call void @llvm.lifetime.end.p0(i64 8, ptr %4) #12
  %16 = load ptr, ptr %2, align 8
  ret ptr %16
}

; Function Attrs: inlinehint mustprogress nounwind uwtable
define internal noundef signext i8 @_ZL9U_FAILURE10UErrorCode(i32 noundef %0) #2 {
  %2 = alloca i32, align 4
  store i32 %0, ptr %2, align 4, !tbaa !15
  %3 = load i32, ptr %2, align 4, !tbaa !15
  %4 = icmp sgt i32 %3, 0
  %5 = zext i1 %4 to i8
  ret i8 %5
}

; Function Attrs: mustprogress uwtable
define internal noundef ptr @_ZL19udata_cacheDataItemPKcP11UDataMemoryP10UErrorCode(ptr noundef %0, ptr noundef %1, ptr noundef %2) #1 {
  %4 = alloca ptr, align 8
  %5 = alloca ptr, align 8
  %6 = alloca ptr, align 8
  %7 = alloca ptr, align 8
  %8 = alloca ptr, align 8
  %9 = alloca ptr, align 8
  %10 = alloca i32, align 4
  %11 = alloca ptr, align 8
  %12 = alloca ptr, align 8
  %13 = alloca i32, align 4
  %14 = alloca i32, align 4
  store ptr %0, ptr %5, align 8, !tbaa !17
  store ptr %1, ptr %6, align 8, !tbaa !43
  store ptr %2, ptr %7, align 8, !tbaa !22
  call void @llvm.lifetime.start.p0(i64 8, ptr %8) #12
  call void @llvm.lifetime.start.p0(i64 8, ptr %9) #12
  call void @llvm.lifetime.start.p0(i64 4, ptr %10) #12
  call void @llvm.lifetime.start.p0(i64 8, ptr %11) #12
  call void @llvm.lifetime.start.p0(i64 8, ptr %12) #12
  store ptr null, ptr %12, align 8, !tbaa !48
  call void @llvm.lifetime.start.p0(i64 4, ptr %13) #12
  store i32 0, ptr %13, align 4, !tbaa !15
  %15 = load ptr, ptr %7, align 8, !tbaa !22
  %16 = call noundef ptr @_ZL18udata_getHashTableR10UErrorCode(ptr noundef nonnull align 4 dereferenceable(4) %15)
  store ptr %16, ptr %11, align 8, !tbaa !50
  %17 = load ptr, ptr %7, align 8, !tbaa !22
  %18 = load i32, ptr %17, align 4, !tbaa !15
  %19 = call noundef signext i8 @_ZL9U_FAILURE10UErrorCode(i32 noundef %18)
  %20 = icmp ne i8 %19, 0
  br i1 %20, label %21, label %22

21:                                               ; preds = %3
  store ptr null, ptr %4, align 8
  store i32 1, ptr %14, align 4
  br label %114

22:                                               ; preds = %3
  %23 = call noalias ptr @uprv_malloc_77(i64 noundef 16) #13
  store ptr %23, ptr %8, align 8, !tbaa !48
  %24 = load ptr, ptr %8, align 8, !tbaa !48
  %25 = icmp eq ptr %24, null
  br i1 %25, label %26, label %28

26:                                               ; preds = %22
  %27 = load ptr, ptr %7, align 8, !tbaa !22
  store i32 7, ptr %27, align 4, !tbaa !15
  store ptr null, ptr %4, align 8
  store i32 1, ptr %14, align 4
  br label %114

28:                                               ; preds = %22
  %29 = load ptr, ptr %7, align 8, !tbaa !22
  %30 = call ptr @UDataMemory_createNewInstance_77(ptr noundef %29)
  %31 = load ptr, ptr %8, align 8, !tbaa !48
  %32 = getelementptr inbounds nuw %struct.DataCacheElement, ptr %31, i32 0, i32 1
  store ptr %30, ptr %32, align 8, !tbaa !52
  %33 = load ptr, ptr %7, align 8, !tbaa !22
  %34 = load i32, ptr %33, align 4, !tbaa !15
  %35 = call noundef signext i8 @_ZL9U_FAILURE10UErrorCode(i32 noundef %34)
  %36 = icmp ne i8 %35, 0
  br i1 %36, label %37, label %39

37:                                               ; preds = %28
  %38 = load ptr, ptr %8, align 8, !tbaa !48
  call void @uprv_free_77(ptr noundef %38)
  store ptr null, ptr %4, align 8
  store i32 1, ptr %14, align 4
  br label %114

39:                                               ; preds = %28
  %40 = load ptr, ptr %8, align 8, !tbaa !48
  %41 = getelementptr inbounds nuw %struct.DataCacheElement, ptr %40, i32 0, i32 1
  %42 = load ptr, ptr %41, align 8, !tbaa !52
  %43 = load ptr, ptr %6, align 8, !tbaa !43
  call void @UDatamemory_assign_77(ptr noundef %42, ptr noundef %43)
  %44 = load ptr, ptr %5, align 8, !tbaa !17
  %45 = call noundef ptr @_ZL12findBasenamePKc(ptr noundef %44)
  store ptr %45, ptr %9, align 8, !tbaa !17
  %46 = load ptr, ptr %9, align 8, !tbaa !17
  %47 = call i64 @strlen(ptr noundef %46) #15
  %48 = trunc i64 %47 to i32
  store i32 %48, ptr %10, align 4, !tbaa !14
  %49 = load i32, ptr %10, align 4, !tbaa !14
  %50 = add nsw i32 %49, 1
  %51 = sext i32 %50 to i64
  %52 = call noalias ptr @uprv_malloc_77(i64 noundef %51) #13
  %53 = load ptr, ptr %8, align 8, !tbaa !48
  %54 = getelementptr inbounds nuw %struct.DataCacheElement, ptr %53, i32 0, i32 0
  store ptr %52, ptr %54, align 8, !tbaa !54
  %55 = load ptr, ptr %8, align 8, !tbaa !48
  %56 = getelementptr inbounds nuw %struct.DataCacheElement, ptr %55, i32 0, i32 0
  %57 = load ptr, ptr %56, align 8, !tbaa !54
  %58 = icmp eq ptr %57, null
  br i1 %58, label %59, label %65

59:                                               ; preds = %39
  %60 = load ptr, ptr %7, align 8, !tbaa !22
  store i32 7, ptr %60, align 4, !tbaa !15
  %61 = load ptr, ptr %8, align 8, !tbaa !48
  %62 = getelementptr inbounds nuw %struct.DataCacheElement, ptr %61, i32 0, i32 1
  %63 = load ptr, ptr %62, align 8, !tbaa !52
  call void @uprv_free_77(ptr noundef %63)
  %64 = load ptr, ptr %8, align 8, !tbaa !48
  call void @uprv_free_77(ptr noundef %64)
  store ptr null, ptr %4, align 8
  store i32 1, ptr %14, align 4
  br label %114

65:                                               ; preds = %39
  %66 = load ptr, ptr %8, align 8, !tbaa !48
  %67 = getelementptr inbounds nuw %struct.DataCacheElement, ptr %66, i32 0, i32 0
  %68 = load ptr, ptr %67, align 8, !tbaa !54
  %69 = load ptr, ptr %9, align 8, !tbaa !17
  %70 = call ptr @strcpy(ptr noundef %68, ptr noundef %69) #12
  call void @umtx_lock_77(ptr noundef null)
  %71 = load ptr, ptr %11, align 8, !tbaa !50
  %72 = load ptr, ptr %5, align 8, !tbaa !17
  %73 = call ptr @uhash_get_77(ptr noundef %71, ptr noundef %72)
  store ptr %73, ptr %12, align 8, !tbaa !48
  %74 = load ptr, ptr %12, align 8, !tbaa !48
  %75 = icmp ne ptr %74, null
  br i1 %75, label %76, label %77

76:                                               ; preds = %65
  store i32 -127, ptr %13, align 4, !tbaa !15
  br label %84

77:                                               ; preds = %65
  %78 = load ptr, ptr %11, align 8, !tbaa !50
  %79 = load ptr, ptr %8, align 8, !tbaa !48
  %80 = getelementptr inbounds nuw %struct.DataCacheElement, ptr %79, i32 0, i32 0
  %81 = load ptr, ptr %80, align 8, !tbaa !54
  %82 = load ptr, ptr %8, align 8, !tbaa !48
  %83 = call ptr @uhash_put_77(ptr noundef %78, ptr noundef %81, ptr noundef %82, ptr noundef %13)
  br label %84

84:                                               ; preds = %77, %76
  call void @umtx_unlock_77(ptr noundef null)
  %85 = load i32, ptr %13, align 4, !tbaa !15
  %86 = icmp eq i32 %85, -127
  br i1 %86, label %91, label %87

87:                                               ; preds = %84
  %88 = load i32, ptr %13, align 4, !tbaa !15
  %89 = call noundef signext i8 @_ZL9U_FAILURE10UErrorCode(i32 noundef %88)
  %90 = icmp ne i8 %89, 0
  br i1 %90, label %91, label %110

91:                                               ; preds = %87, %84
  %92 = load i32, ptr %13, align 4, !tbaa !15
  %93 = load ptr, ptr %7, align 8, !tbaa !22
  store i32 %92, ptr %93, align 4, !tbaa !15
  %94 = load ptr, ptr %8, align 8, !tbaa !48
  %95 = getelementptr inbounds nuw %struct.DataCacheElement, ptr %94, i32 0, i32 0
  %96 = load ptr, ptr %95, align 8, !tbaa !54
  call void @uprv_free_77(ptr noundef %96)
  %97 = load ptr, ptr %8, align 8, !tbaa !48
  %98 = getelementptr inbounds nuw %struct.DataCacheElement, ptr %97, i32 0, i32 1
  %99 = load ptr, ptr %98, align 8, !tbaa !52
  call void @uprv_free_77(ptr noundef %99)
  %100 = load ptr, ptr %8, align 8, !tbaa !48
  call void @uprv_free_77(ptr noundef %100)
  %101 = load ptr, ptr %12, align 8, !tbaa !48
  %102 = icmp ne ptr %101, null
  br i1 %102, label %103, label %107

103:                                              ; preds = %91
  %104 = load ptr, ptr %12, align 8, !tbaa !48
  %105 = getelementptr inbounds nuw %struct.DataCacheElement, ptr %104, i32 0, i32 1
  %106 = load ptr, ptr %105, align 8, !tbaa !52
  br label %108

107:                                              ; preds = %91
  br label %108

108:                                              ; preds = %107, %103
  %109 = phi ptr [ %106, %103 ], [ null, %107 ]
  store ptr %109, ptr %4, align 8
  store i32 1, ptr %14, align 4
  br label %114

110:                                              ; preds = %87
  %111 = load ptr, ptr %8, align 8, !tbaa !48
  %112 = getelementptr inbounds nuw %struct.DataCacheElement, ptr %111, i32 0, i32 1
  %113 = load ptr, ptr %112, align 8, !tbaa !52
  store ptr %113, ptr %4, align 8
  store i32 1, ptr %14, align 4
  br label %114

114:                                              ; preds = %110, %108, %59, %37, %26, %21
  call void @llvm.lifetime.end.p0(i64 4, ptr %13) #12
  call void @llvm.lifetime.end.p0(i64 8, ptr %12) #12
  call void @llvm.lifetime.end.p0(i64 8, ptr %11) #12
  call void @llvm.lifetime.end.p0(i64 4, ptr %10) #12
  call void @llvm.lifetime.end.p0(i64 8, ptr %9) #12
  call void @llvm.lifetime.end.p0(i64 8, ptr %8) #12
  %115 = load ptr, ptr %4, align 8
  ret ptr %115
}