; Function Attrs: mustprogress uwtable
define internal fastcc noundef ptr @_ZL19udata_cacheDataItemPKcP11UDataMemoryP10UErrorCode(ptr noundef %0, ptr noundef nonnull %1, ptr noundef nonnull %2) unnamed_addr #1 {
  %4 = alloca i32, align 4
  call void @llvm.lifetime.start.p0(i64 4, ptr nonnull %4) #15
  store i32 0, ptr %4, align 4, !tbaa !13
  %5 = tail call fastcc noundef ptr @_ZL18udata_getHashTableR10UErrorCode(ptr noundef nonnull align 4 dereferenceable(4) %2)
  %6 = load i32, ptr %2, align 4, !tbaa !13
  %7 = icmp slt i32 %6, 1
  br i1 %7, label %8, label %48

8:                                                ; preds = %3
  %9 = tail call noalias dereferenceable_or_null(16) ptr @uprv_malloc_77(i64 noundef 16) #16
  %10 = icmp eq ptr %9, null
  br i1 %10, label %11, label %12

11:                                               ; preds = %8
  store i32 7, ptr %2, align 4, !tbaa !13
  br label %48

12:                                               ; preds = %8
  %13 = tail call ptr @UDataMemory_createNewInstance_77(ptr noundef nonnull %2)
  %14 = getelementptr inbounds nuw i8, ptr %9, i64 8
  store ptr %13, ptr %14, align 8, !tbaa !35
  %15 = load i32, ptr %2, align 4, !tbaa !13
  %16 = icmp slt i32 %15, 1
  br i1 %16, label %18, label %17

17:                                               ; preds = %12
  tail call void @uprv_free_77(ptr noundef nonnull %9)
  br label %48

18:                                               ; preds = %12
  tail call void @UDatamemory_assign_77(ptr noundef %13, ptr noundef nonnull %1)
  %19 = tail call noundef ptr @strrchr(ptr noundef nonnull readonly dereferenceable(1) %0, i32 noundef 47) #18
  %20 = icmp eq ptr %19, null
  %21 = getelementptr inbounds nuw i8, ptr %19, i64 1
  %.0.i = select i1 %20, ptr %0, ptr %21
  %22 = tail call i64 @strlen(ptr noundef nonnull dereferenceable(1) %.0.i) #18
  %23 = shl i64 %22, 32
  %sext = add i64 %23, 4294967296
  %24 = ashr exact i64 %sext, 32
  %25 = tail call noalias ptr @uprv_malloc_77(i64 noundef %24) #16
  store ptr %25, ptr %9, align 8, !tbaa !37
  %26 = icmp eq ptr %25, null
  br i1 %26, label %27, label %29

27:                                               ; preds = %18
  store i32 7, ptr %2, align 4, !tbaa !13
  %28 = load ptr, ptr %14, align 8, !tbaa !35
  tail call void @uprv_free_77(ptr noundef %28)
  tail call void @uprv_free_77(ptr noundef nonnull %9)
  br label %48

29:                                               ; preds = %18
  %30 = tail call ptr @strcpy(ptr noundef nonnull dereferenceable(1) %25, ptr noundef nonnull dereferenceable(1) %.0.i) #15
  tail call void @umtx_lock_77(ptr noundef null)
  %31 = tail call ptr @uhash_get_77(ptr noundef %5, ptr noundef nonnull %0)
  %.not38 = icmp eq ptr %31, null
  br i1 %.not38, label %33, label %32

32:                                               ; preds = %29
  store i32 -127, ptr %4, align 4, !tbaa !13
  br label %36

33:                                               ; preds = %29
  %34 = load ptr, ptr %9, align 8, !tbaa !37
  %35 = call ptr @uhash_put_77(ptr noundef %5, ptr noundef %34, ptr noundef nonnull %9, ptr noundef nonnull %4)
  br label %36

36:                                               ; preds = %33, %32
  call void @umtx_unlock_77(ptr noundef null)
  %37 = load i32, ptr %4, align 4, !tbaa !13
  %38 = icmp ne i32 %37, -127
  %39 = icmp slt i32 %37, 1
  %or.cond = and i1 %38, %39
  br i1 %or.cond, label %46, label %40

40:                                               ; preds = %36
  store i32 %37, ptr %2, align 4, !tbaa !13
  %41 = load ptr, ptr %9, align 8, !tbaa !37
  call void @uprv_free_77(ptr noundef %41)
  %42 = load ptr, ptr %14, align 8, !tbaa !35
  call void @uprv_free_77(ptr noundef %42)
  call void @uprv_free_77(ptr noundef nonnull %9)
  br i1 %.not38, label %48, label %43

43:                                               ; preds = %40
  %44 = getelementptr inbounds nuw i8, ptr %31, i64 8
  %45 = load ptr, ptr %44, align 8, !tbaa !35
  br label %48

46:                                               ; preds = %36
  %47 = load ptr, ptr %14, align 8, !tbaa !35
  br label %48

48:                                               ; preds = %43, %40, %3, %46, %27, %17, %11
  %.0 = phi ptr [ null, %11 ], [ null, %17 ], [ null, %27 ], [ %47, %46 ], [ null, %3 ], [ %45, %43 ], [ null, %40 ]
  call void @llvm.lifetime.end.p0(i64 4, ptr nonnull %4) #15
  ret ptr %.0
}